target datalayout = "e-m:e-p270:32:32-p271:32:32-p272:64:64-i64:64-i128:128-f80:128-n8:16:32:64-S128"
target triple = "x86_64-pc-linux-gnu"

@.str.177 = private unnamed_addr constant [2 x i8] c",\00", align 1
@.str.226 = private unnamed_addr constant [2 x i8] c"]\00", align 1

; Function Attrs: nounwind uwtable
define internal void @_get_parameters_n_m(ptr noundef %0, ptr noundef %1, ptr noundef %2) #0 {
  %4 = alloca ptr, align 8
  %5 = alloca ptr, align 8
  %6 = alloca ptr, align 8
  %7 = alloca ptr, align 8
  %8 = alloca ptr, align 8
  %9 = alloca ptr, align 8
  %10 = alloca ptr, align 8
  %11 = alloca i32, align 4
  %12 = alloca ptr, align 8
  store ptr %0, ptr %4, align 8, !tbaa !134
  store ptr %1, ptr %5, align 8, !tbaa !134
  store ptr %2, ptr %6, align 8, !tbaa !134
  %13 = load ptr, ptr %5, align 8, !tbaa !134
  store ptr null, ptr %13, align 8, !tbaa !11
  %14 = load ptr, ptr %6, align 8, !tbaa !134
  %15 = icmp ne ptr %14, null
  br i1 %15, label %16, label %18

16:                                               ; preds = %3
  %17 = load ptr, ptr %6, align 8, !tbaa !134
  store ptr null, ptr %17, align 8, !tbaa !11
  br label %18

18:                                               ; preds = %16, %3
  %19 = load ptr, ptr %4, align 8, !tbaa !134
  %20 = getelementptr inbounds ptr, ptr %19, i64 0
  %21 = load ptr, ptr %20, align 8, !tbaa !11
  %22 = load i8, ptr %21, align 1, !tbaa !111
  %23 = sext i8 %22 to i32
  %24 = icmp ne i32 %23, 91
  br i1 %24, label %25, label %26

25:                                               ; preds = %18
  br label %91

26:                                               ; preds = %18
  %27 = load ptr, ptr %4, align 8, !tbaa !134
  %28 = load ptr, ptr %27, align 8, !tbaa !11
  %29 = getelementptr inbounds nuw i8, ptr %28, i32 1
  store ptr %29, ptr %27, align 8, !tbaa !11
  %30 = load ptr, ptr %4, align 8, !tbaa !134
  %31 = getelementptr inbounds ptr, ptr %30, i64 0
  %32 = load ptr, ptr %31, align 8, !tbaa !11
  %33 = load i8, ptr %32, align 1, !tbaa !111
  %34 = sext i8 %33 to i32
  %35 = icmp eq i32 %34, 44
  br i1 %35, label %36, label %37

36:                                               ; preds = %26
  br label %91

37:                                               ; preds = %26
  call void @llvm.lifetime.start.p0(i64 8, ptr %7) #11
  %38 = load ptr, ptr %4, align 8, !tbaa !134
  %39 = load ptr, ptr %38, align 8, !tbaa !11
  %40 = call noalias ptr @g_strdup(ptr noundef %39)
  store ptr %40, ptr %7, align 8, !tbaa !11
  call void @llvm.lifetime.start.p0(i64 8, ptr %8) #11
  %41 = load ptr, ptr %7, align 8, !tbaa !11
  %42 = call ptr @g_strstr_len(ptr noundef %41, i64 noundef -1, ptr noundef @.str.226)
  store ptr %42, ptr %8, align 8, !tbaa !11
  %43 = load ptr, ptr %8, align 8, !tbaa !11
  %44 = icmp ne ptr %43, null
  br i1 %44, label %45, label %89

45:                                               ; preds = %37
  %46 = load ptr, ptr %8, align 8, !tbaa !11
  %47 = getelementptr inbounds i8, ptr %46, i64 0
  store i8 0, ptr %47, align 1, !tbaa !111
  %48 = load ptr, ptr %7, align 8, !tbaa !11
  %49 = call i64 @strlen(ptr noundef %48) #12
  %50 = add i64 %49, 1
  %51 = load ptr, ptr %4, align 8, !tbaa !134
  %52 = load ptr, ptr %51, align 8, !tbaa !11
  %53 = getelementptr inbounds nuw i8, ptr %52, i64 %50
  store ptr %53, ptr %51, align 8, !tbaa !11
  call void @llvm.lifetime.start.p0(i64 8, ptr %9) #11
  %54 = load ptr, ptr %7, align 8, !tbaa !11
  %55 = call ptr @g_strsplit(ptr noundef %54, ptr noundef @.str.177, i32 noundef 2)
  store ptr %55, ptr %9, align 8, !tbaa !134
  call void @llvm.lifetime.start.p0(i64 8, ptr %10) #11
  %56 = load ptr, ptr %9, align 8, !tbaa !134
  store ptr %56, ptr %10, align 8, !tbaa !134
  call void @llvm.lifetime.start.p0(i64 4, ptr %11) #11
  store i32 0, ptr %11, align 4, !tbaa !13
  br label %57

57:                                               ; preds = %82, %45
  %58 = load ptr, ptr %10, align 8, !tbaa !134
  %59 = load ptr, ptr %58, align 8, !tbaa !11
  %60 = icmp ne ptr %59, null
  br i1 %60, label %61, label %64

61:                                               ; preds = %57
  %62 = load i32, ptr %11, align 4, !tbaa !13
  %63 = icmp slt i32 %62, 2
  br label %64

64:                                               ; preds = %61, %57
  %65 = phi i1 [ false, %57 ], [ %63, %61 ]
  br i1 %65, label %66, label %87

66:                                               ; preds = %64
  call void @llvm.lifetime.start.p0(i64 8, ptr %12) #11
  %67 = load i32, ptr %11, align 4, !tbaa !13
  %68 = icmp eq i32 %67, 0
  br i1 %68, label %69, label %71

69:                                               ; preds = %66
  %70 = load ptr, ptr %5, align 8, !tbaa !134
  br label %73

71:                                               ; preds = %66
  %72 = load ptr, ptr %6, align 8, !tbaa !134
  br label %73

73:                                               ; preds = %71, %69
  %74 = phi ptr [ %70, %69 ], [ %72, %71 ]
  store ptr %74, ptr %12, align 8, !tbaa !134
  %75 = load ptr, ptr %12, align 8, !tbaa !134
  %76 = icmp ne ptr %75, null
  br i1 %76, label %77, label %82

77:                                               ; preds = %73
  %78 = load ptr, ptr %10, align 8, !tbaa !134
  %79 = load ptr, ptr %78, align 8, !tbaa !11
  %80 = call noalias ptr @g_strdup(ptr noundef %79)
  %81 = load ptr, ptr %12, align 8, !tbaa !134
  store ptr %80, ptr %81, align 8, !tbaa !11
  br label %82

82:                                               ; preds = %77, %73
  %83 = load ptr, ptr %10, align 8, !tbaa !134
  %84 = getelementptr inbounds nuw ptr, ptr %83, i32 1
  store ptr %84, ptr %10, align 8, !tbaa !134
  %85 = load i32, ptr %11, align 4, !tbaa !13
  %86 = add nsw i32 %85, 1
  store i32 %86, ptr %11, align 4, !tbaa !13
  call void @llvm.lifetime.end.p0(i64 8, ptr %12) #11
  br label %57

87:                                               ; preds = %64
  %88 = load ptr, ptr %9, align 8, !tbaa !134
  call void @g_strfreev(ptr noundef %88)
  call void @llvm.lifetime.end.p0(i64 4, ptr %11) #11
  call void @llvm.lifetime.end.p0(i64 8, ptr %10) #11
  call void @llvm.lifetime.end.p0(i64 8, ptr %9) #11
  br label %89

89:                                               ; preds = %87, %37
  %90 = load ptr, ptr %7, align 8, !tbaa !11
  call void @g_free(ptr noundef %90)
  call void @llvm.lifetime.end.p0(i64 8, ptr %8) #11
  call void @llvm.lifetime.end.p0(i64 8, ptr %7) #11
  br label %91

91:                                               ; preds = %89, %36, %25
  ret void
}