; Function Attrs: nounwind uwtable
define internal fastcc void @_get_parameters_n_m(ptr noundef nonnull captures(none) %0, ptr noundef nonnull writeonly initializes((0, 8)) %1, ptr noundef writeonly %2) unnamed_addr #0 {
  store ptr null, ptr %1, align 8, !tbaa !6
  %.not = icmp eq ptr %2, null
  br i1 %.not, label %5, label %4

4:                                                ; preds = %3
  store ptr null, ptr %2, align 8, !tbaa !6
  br label %5

5:                                                ; preds = %4, %3
  %6 = load ptr, ptr %0, align 8, !tbaa !6
  %7 = load i8, ptr %6, align 1, !tbaa !105
  %.not30 = icmp eq i8 %7, 91
  br i1 %.not30, label %8, label %33

8:                                                ; preds = %5
  %9 = getelementptr inbounds nuw i8, ptr %6, i64 1
  store ptr %9, ptr %0, align 8, !tbaa !6
  %10 = load i8, ptr %9, align 1, !tbaa !105
  %11 = icmp eq i8 %10, 44
  br i1 %11, label %33, label %12

12:                                               ; preds = %8
  %13 = tail call noalias ptr @g_strdup(ptr noundef nonnull %9) #16
  %14 = tail call ptr @g_strstr_len(ptr noundef %13, i64 noundef -1, ptr noundef nonnull @.str.226) #16
  %.not31 = icmp eq ptr %14, null
  br i1 %.not31, label %32, label %15

15:                                               ; preds = %12
  store i8 0, ptr %14, align 1, !tbaa !105
  %16 = tail call i64 @strlen(ptr noundef nonnull dereferenceable(1) %13) #17
  %17 = load ptr, ptr %0, align 8, !tbaa !6
  %18 = getelementptr i8, ptr %17, i64 %16
  %19 = getelementptr i8, ptr %18, i64 1
  store ptr %19, ptr %0, align 8, !tbaa !6
  %20 = tail call ptr @g_strsplit(ptr noundef nonnull %13, ptr noundef nonnull @.str.177, i32 noundef 2) #16
  %21 = load ptr, ptr %20, align 8, !tbaa !6
  %.not35 = icmp eq ptr %21, null
  br i1 %.not35, label %._crit_edge, label %.lr.ph

.lr.ph:                                           ; preds = %15, %27
  %22 = phi ptr [ %29, %27 ], [ %21, %15 ]
  %.034 = phi ptr [ %28, %27 ], [ %20, %15 ]
  %23 = phi i1 [ false, %27 ], [ true, %15 ]
  %24 = select i1 %23, ptr %1, ptr %2
  %.not32 = icmp eq ptr %24, null
  br i1 %.not32, label %27, label %25

25:                                               ; preds = %.lr.ph
  %26 = tail call noalias ptr @g_strdup(ptr noundef nonnull %22) #16
  store ptr %26, ptr %24, align 8, !tbaa !6
  br label %27

27:                                               ; preds = %25, %.lr.ph
  %28 = getelementptr inbounds nuw i8, ptr %.034, i64 8
  %29 = load ptr, ptr %28, align 8, !tbaa !6
  %30 = icmp ne ptr %29, null
  %31 = and i1 %30, %23
  br i1 %31, label %.lr.ph, label %._crit_edge

._crit_edge:                                      ; preds = %27, %15
  tail call void @g_strfreev(ptr noundef nonnull %20) #16
  br label %32

32:                                               ; preds = %._crit_edge, %12
  tail call void @g_free(ptr noundef %13) #16
  br label %33

33:                                               ; preds = %8, %5, %32
  ret void
}